(lp0
(lp1
(imap
Cell
p2
(dp3
S'id'
p4
I0
sba(imap
Cell
p5
(dp6
g4
I0
sba(imap
Cell
p7
(dp8
g4
I0
sba(imap
Cell
p9
(dp10
g4
I0
sba(imap
Cell
p11
(dp12
g4
I0
sba(imap
Cell
p13
(dp14
g4
I0
sba(imap
Cell
p15
(dp16
g4
I0
sba(imap
Cell
p17
(dp18
g4
I0
sba(imap
Cell
p19
(dp20
g4
I0
sba(imap
Cell
p21
(dp22
g4
I0
sba(imap
Cell
p23
(dp24
g4
I0
sba(imap
Cell
p25
(dp26
g4
I0
sba(imap
Cell
p27
(dp28
g4
I0
sba(imap
Cell
p29
(dp30
g4
I0
sba(imap
Cell
p31
(dp32
g4
I0
sba(imap
Cell
p33
(dp34
g4
I0
sba(imap
Cell
p35
(dp36
g4
I0
sba(imap
Cell
p37
(dp38
g4
I0
sba(imap
Cell
p39
(dp40
g4
I0
sba(imap
Cell
p41
(dp42
g4
I0
sba(imap
Cell
p43
(dp44
g4
I0
sba(imap
Cell
p45
(dp46
g4
I0
sba(imap
Cell
p47
(dp48
g4
I0
sba(imap
Cell
p49
(dp50
g4
I0
sba(imap
Cell
p51
(dp52
g4
I0
sba(imap
Cell
p53
(dp54
g4
I0
sba(imap
Cell
p55
(dp56
g4
I0
sba(imap
Cell
p57
(dp58
g4
I0
sba(imap
Cell
p59
(dp60
g4
I0
sba(imap
Cell
p61
(dp62
g4
I0
sba(imap
Cell
p63
(dp64
g4
I0
sba(imap
Cell
p65
(dp66
g4
I0
sba(imap
Cell
p67
(dp68
g4
I0
sba(imap
Cell
p69
(dp70
g4
I0
sba(imap
Cell
p71
(dp72
g4
I0
sba(imap
Cell
p73
(dp74
g4
I50
sba(imap
Cell
p75
(dp76
g4
I0
sba(imap
Cell
p77
(dp78
g4
I0
sba(imap
Cell
p79
(dp80
g4
I0
sba(imap
Cell
p81
(dp82
g4
I0
sba(imap
Cell
p83
(dp84
g4
I0
sba(imap
Cell
p85
(dp86
g4
I0
sba(imap
Cell
p87
(dp88
g4
I0
sba(imap
Cell
p89
(dp90
g4
I0
sba(imap
Cell
p91
(dp92
g4
I0
sba(imap
Cell
p93
(dp94
g4
I0
sba(imap
Cell
p95
(dp96
g4
I0
sba(imap
Cell
p97
(dp98
g4
I0
sba(imap
Cell
p99
(dp100
g4
I0
sba(imap
Cell
p101
(dp102
g4
I0
sba(imap
Cell
p103
(dp104
g4
I0
sba(imap
Cell
p105
(dp106
g4
I0
sba(imap
Cell
p107
(dp108
g4
I0
sba(imap
Cell
p109
(dp110
g4
I50
sba(imap
Cell
p111
(dp112
g4
I50
sba(imap
Cell
p113
(dp114
g4
I0
sba(imap
Cell
p115
(dp116
g4
I0
sba(imap
Cell
p117
(dp118
g4
I0
sba(imap
Cell
p119
(dp120
g4
I0
sba(imap
Cell
p121
(dp122
g4
I0
sba(imap
Cell
p123
(dp124
g4
I50
sba(imap
Cell
p125
(dp126
g4
I0
sba(imap
Cell
p127
(dp128
g4
I0
sba(imap
Cell
p129
(dp130
g4
I0
sba(imap
Cell
p131
(dp132
g4
I0
sba(imap
Cell
p133
(dp134
g4
I0
sba(imap
Cell
p135
(dp136
g4
I0
sba(imap
Cell
p137
(dp138
g4
I0
sba(imap
Cell
p139
(dp140
g4
I0
sba(imap
Cell
p141
(dp142
g4
I0
sba(imap
Cell
p143
(dp144
g4
I0
sba(imap
Cell
p145
(dp146
g4
I0
sba(imap
Cell
p147
(dp148
g4
I0
sba(imap
Cell
p149
(dp150
g4
I0
sba(imap
Cell
p151
(dp152
g4
I0
sba(imap
Cell
p153
(dp154
g4
I0
sba(imap
Cell
p155
(dp156
g4
I0
sba(imap
Cell
p157
(dp158
g4
I0
sba(imap
Cell
p159
(dp160
g4
I50
sba(imap
Cell
p161
(dp162
g4
I50
sba(imap
Cell
p163
(dp164
g4
I0
sba(imap
Cell
p165
(dp166
g4
I0
sba(imap
Cell
p167
(dp168
g4
I0
sba(imap
Cell
p169
(dp170
g4
I0
sba(imap
Cell
p171
(dp172
g4
I0
sba(imap
Cell
p173
(dp174
g4
I50
sba(imap
Cell
p175
(dp176
g4
I0
sba(imap
Cell
p177
(dp178
g4
I0
sba(imap
Cell
p179
(dp180
g4
I0
sba(imap
Cell
p181
(dp182
g4
I0
sba(imap
Cell
p183
(dp184
g4
I0
sba(imap
Cell
p185
(dp186
g4
I0
sba(imap
Cell
p187
(dp188
g4
I0
sba(imap
Cell
p189
(dp190
g4
I0
sba(imap
Cell
p191
(dp192
g4
I0
sba(imap
Cell
p193
(dp194
g4
I0
sba(imap
Cell
p195
(dp196
g4
I0
sba(imap
Cell
p197
(dp198
g4
I0
sba(imap
Cell
p199
(dp200
g4
I0
sba(imap
Cell
p201
(dp202
g4
I0
sba(imap
Cell
p203
(dp204
g4
I0
sba(imap
Cell
p205
(dp206
g4
I0
sba(imap
Cell
p207
(dp208
g4
I0
sba(imap
Cell
p209
(dp210
g4
I0
sba(imap
Cell
p211
(dp212
g4
I0
sba(imap
Cell
p213
(dp214
g4
I0
sba(imap
Cell
p215
(dp216
g4
I0
sba(imap
Cell
p217
(dp218
g4
I50
sba(imap
Cell
p219
(dp220
g4
I0
sba(imap
Cell
p221
(dp222
g4
I0
sba(imap
Cell
p223
(dp224
g4
I50
sba(imap
Cell
p225
(dp226
g4
I0
sba(imap
Cell
p227
(dp228
g4
I0
sba(imap
Cell
p229
(dp230
g4
I0
sba(imap
Cell
p231
(dp232
g4
I0
sba(imap
Cell
p233
(dp234
g4
I0
sba(imap
Cell
p235
(dp236
g4
I0
sba(imap
Cell
p237
(dp238
g4
I0
sba(imap
Cell
p239
(dp240
g4
I0
sba(imap
Cell
p241
(dp242
g4
I0
sba(imap
Cell
p243
(dp244
g4
I0
sba(imap
Cell
p245
(dp246
g4
I0
sba(imap
Cell
p247
(dp248
g4
I0
sba(imap
Cell
p249
(dp250
g4
I0
sba(imap
Cell
p251
(dp252
g4
I0
sba(imap
Cell
p253
(dp254
g4
I0
sba(imap
Cell
p255
(dp256
g4
I0
sba(imap
Cell
p257
(dp258
g4
I0
sba(imap
Cell
p259
(dp260
g4
I50
sba(imap
Cell
p261
(dp262
g4
I50
sba(imap
Cell
p263
(dp264
g4
I0
sba(imap
Cell
p265
(dp266
g4
I0
sba(imap
Cell
p267
(dp268
g4
I0
sba(imap
Cell
p269
(dp270
g4
I0
sba(imap
Cell
p271
(dp272
g4
I0
sba(imap
Cell
p273
(dp274
g4
I50
sba(imap
Cell
p275
(dp276
g4
I0
sba(imap
Cell
p277
(dp278
g4
I0
sba(imap
Cell
p279
(dp280
g4
I0
sba(imap
Cell
p281
(dp282
g4
I0
sba(imap
Cell
p283
(dp284
g4
I0
sba(imap
Cell
p285
(dp286
g4
I0
sba(imap
Cell
p287
(dp288
g4
I0
sba(imap
Cell
p289
(dp290
g4
I0
sba(imap
Cell
p291
(dp292
g4
I0
sba(imap
Cell
p293
(dp294
g4
I0
sba(imap
Cell
p295
(dp296
g4
I0
sba(imap
Cell
p297
(dp298
g4
I0
sba(imap
Cell
p299
(dp300
g4
I0
sba(imap
Cell
p301
(dp302
g4
I0
sba(imap
Cell
p303
(dp304
g4
I0
sba(imap
Cell
p305
(dp306
g4
I0
sba(imap
Cell
p307
(dp308
g4
I0
sba(imap
Cell
p309
(dp310
g4
I50
sba(imap
Cell
p311
(dp312
g4
I50
sba(imap
Cell
p313
(dp314
g4
I0
sba(imap
Cell
p315
(dp316
g4
I0
sba(imap
Cell
p317
(dp318
g4
I0
sba(imap
Cell
p319
(dp320
g4
I0
sba(imap
Cell
p321
(dp322
g4
I0
sba(imap
Cell
p323
(dp324
g4
I50
sba(imap
Cell
p325
(dp326
g4
I0
sba(imap
Cell
p327
(dp328
g4
I0
sba(imap
Cell
p329
(dp330
g4
I0
sba(imap
Cell
p331
(dp332
g4
I0
sba(imap
Cell
p333
(dp334
g4
I0
sba(imap
Cell
p335
(dp336
g4
I0
sba(imap
Cell
p337
(dp338
g4
I0
sba(imap
Cell
p339
(dp340
g4
I0
sba(imap
Cell
p341
(dp342
g4
I0
sba(imap
Cell
p343
(dp344
g4
I0
sba(imap
Cell
p345
(dp346
g4
I0
sba(imap
Cell
p347
(dp348
g4
I0
sba(imap
Cell
p349
(dp350
g4
I0
sba(imap
Cell
p351
(dp352
g4
I0
sba(imap
Cell
p353
(dp354
g4
I0
sba(imap
Cell
p355
(dp356
g4
I0
sba(imap
Cell
p357
(dp358
g4
I0
sba(imap
Cell
p359
(dp360
g4
I0
sba(imap
Cell
p361
(dp362
g4
I0
sba(imap
Cell
p363
(dp364
g4
I0
sba(imap
Cell
p365
(dp366
g4
I0
sba(imap
Cell
p367
(dp368
g4
I0
sba(imap
Cell
p369
(dp370
g4
I0
sba(imap
Cell
p371
(dp372
g4
I0
sba(imap
Cell
p373
(dp374
g4
I50
sba(imap
Cell
p375
(dp376
g4
I0
sba(imap
Cell
p377
(dp378
g4
I0
sba(imap
Cell
p379
(dp380
g4
I0
sba(imap
Cell
p381
(dp382
g4
I0
sba(imap
Cell
p383
(dp384
g4
I0
sba(imap
Cell
p385
(dp386
g4
I0
sba(imap
Cell
p387
(dp388
g4
I0
sba(imap
Cell
p389
(dp390
g4
I0
sba(imap
Cell
p391
(dp392
g4
I0
sba(imap
Cell
p393
(dp394
g4
I0
sba(imap
Cell
p395
(dp396
g4
I0
sba(imap
Cell
p397
(dp398
g4
I0
sba(imap
Cell
p399
(dp400
g4
I0
sba(imap
Cell
p401
(dp402
g4
I0
sba(imap
Cell
p403
(dp404
g4
I0
sba(imap
Cell
p405
(dp406
g4
I0
sba(imap
Cell
p407
(dp408
g4
I0
sba(imap
Cell
p409
(dp410
g4
I0
sba(imap
Cell
p411
(dp412
g4
I0
sba(imap
Cell
p413
(dp414
g4
I0
sba(imap
Cell
p415
(dp416
g4
I0
sba(imap
Cell
p417
(dp418
g4
I108
sba(imap
Cell
p419
(dp420
g4
I0
sba(imap
Cell
p421
(dp422
g4
I108
sba(imap
Cell
p423
(dp424
g4
I0
sba(imap
Cell
p425
(dp426
g4
I0
sba(imap
Cell
p427
(dp428
g4
I0
sba(imap
Cell
p429
(dp430
g4
I0
sba(imap
Cell
p431
(dp432
g4
I0
sba(imap
Cell
p433
(dp434
g4
I0
sba(imap
Cell
p435
(dp436
g4
I0
sba(imap
Cell
p437
(dp438
g4
I0
sba(imap
Cell
p439
(dp440
g4
I0
sba(imap
Cell
p441
(dp442
g4
I0
sba(imap
Cell
p443
(dp444
g4
I0
sba(imap
Cell
p445
(dp446
g4
I0
sba(imap
Cell
p447
(dp448
g4
I0
sba(imap
Cell
p449
(dp450
g4
I0
sba(imap
Cell
p451
(dp452
g4
I0
sba(imap
Cell
p453
(dp454
g4
I0
sba(imap
Cell
p455
(dp456
g4
I0
sba(imap
Cell
p457
(dp458
g4
I0
sba(imap
Cell
p459
(dp460
g4
I0
sba(imap
Cell
p461
(dp462
g4
I0
sba(imap
Cell
p463
(dp464
g4
I0
sba(imap
Cell
p465
(dp466
g4
I137
sba(imap
Cell
p467
(dp468
g4
I0
sba(imap
Cell
p469
(dp470
g4
I137
sba(imap
Cell
p471
(dp472
g4
I137
sba(imap
Cell
p473
(dp474
g4
I137
sba(imap
Cell
p475
(dp476
g4
I0
sba(imap
Cell
p477
(dp478
g4
I0
sba(imap
Cell
p479
(dp480
g4
I0
sba(imap
Cell
p481
(dp482
g4
I0
sba(imap
Cell
p483
(dp484
g4
I0
sba(imap
Cell
p485
(dp486
g4
I0
sba(imap
Cell
p487
(dp488
g4
I0
sba(imap
Cell
p489
(dp490
g4
I0
sba(imap
Cell
p491
(dp492
g4
I0
sba(imap
Cell
p493
(dp494
g4
I0
sba(imap
Cell
p495
(dp496
g4
I0
sba(imap
Cell
p497
(dp498
g4
I0
sba(imap
Cell
p499
(dp500
g4
I0
sba(imap
Cell
p501
(dp502
g4
I0
sba(imap
Cell
p503
(dp504
g4
I0
sba(imap
Cell
p505
(dp506
g4
I0
sba(imap
Cell
p507
(dp508
g4
I0
sba(imap
Cell
p509
(dp510
g4
I0
sba(imap
Cell
p511
(dp512
g4
I0
sba(imap
Cell
p513
(dp514
g4
I0
sba(imap
Cell
p515
(dp516
g4
I108
sba(imap
Cell
p517
(dp518
g4
I108
sba(imap
Cell
p519
(dp520
g4
I108
sba(imap
Cell
p521
(dp522
g4
I108
sba(imap
Cell
p523
(dp524
g4
I108
sba(imap
Cell
p525
(dp526
g4
I0
sba(imap
Cell
p527
(dp528
g4
I0
sba(imap
Cell
p529
(dp530
g4
I0
sba(imap
Cell
p531
(dp532
g4
I0
sba(imap
Cell
p533
(dp534
g4
I0
sba(imap
Cell
p535
(dp536
g4
I0
sba(imap
Cell
p537
(dp538
g4
I0
sba(imap
Cell
p539
(dp540
g4
I0
sba(imap
Cell
p541
(dp542
g4
I0
sba(imap
Cell
p543
(dp544
g4
I0
sba(imap
Cell
p545
(dp546
g4
I0
sba(imap
Cell
p547
(dp548
g4
I0
sba(imap
Cell
p549
(dp550
g4
I0
sba(imap
Cell
p551
(dp552
g4
I0
sba(imap
Cell
p553
(dp554
g4
I0
sba(imap
Cell
p555
(dp556
g4
I0
sba(imap
Cell
p557
(dp558
g4
I0
sba(imap
Cell
p559
(dp560
g4
I0
sba(imap
Cell
p561
(dp562
g4
I0
sba(imap
Cell
p563
(dp564
g4
I0
sba(imap
Cell
p565
(dp566
g4
I0
sba(imap
Cell
p567
(dp568
g4
I108
sba(imap
Cell
p569
(dp570
g4
I108
sba(imap
Cell
p571
(dp572
g4
I108
sba(imap
Cell
p573
(dp574
g4
I0
sba(imap
Cell
p575
(dp576
g4
I0
sba(imap
Cell
p577
(dp578
g4
I0
sba(imap
Cell
p579
(dp580
g4
I0
sba(imap
Cell
p581
(dp582
g4
I0
sba(imap
Cell
p583
(dp584
g4
I0
sba(imap
Cell
p585
(dp586
g4
I0
sba(imap
Cell
p587
(dp588
g4
I0
sba(imap
Cell
p589
(dp590
g4
I0
sba(imap
Cell
p591
(dp592
g4
I0
sba(imap
Cell
p593
(dp594
g4
I0
sba(imap
Cell
p595
(dp596
g4
I0
sba(imap
Cell
p597
(dp598
g4
I0
sba(imap
Cell
p599
(dp600
g4
I0
sba(imap
Cell
p601
(dp602
g4
I0
sba(imap
Cell
p603
(dp604
g4
I0
sba(imap
Cell
p605
(dp606
g4
I0
sba(imap
Cell
p607
(dp608
g4
I0
sba(imap
Cell
p609
(dp610
g4
I0
sba(imap
Cell
p611
(dp612
g4
I0
sba(imap
Cell
p613
(dp614
g4
I0
sba(imap
Cell
p615
(dp616
g4
I0
sba(imap
Cell
p617
(dp618
g4
I0
sba(imap
Cell
p619
(dp620
g4
I108
sba(imap
Cell
p621
(dp622
g4
I0
sba(imap
Cell
p623
(dp624
g4
I0
sba(imap
Cell
p625
(dp626
g4
I0
sba(imap
Cell
p627
(dp628
g4
I0
sba(imap
Cell
p629
(dp630
g4
I0
sba(imap
Cell
p631
(dp632
g4
I0
sba(imap
Cell
p633
(dp634
g4
I0
sba(imap
Cell
p635
(dp636
g4
I0
sba(imap
Cell
p637
(dp638
g4
I0
sba(imap
Cell
p639
(dp640
g4
I0
sba(imap
Cell
p641
(dp642
g4
I0
sba(imap
Cell
p643
(dp644
g4
I0
sba(imap
Cell
p645
(dp646
g4
I0
sba(imap
Cell
p647
(dp648
g4
I0
sba(imap
Cell
p649
(dp650
g4
I0
sba(imap
Cell
p651
(dp652
g4
I0
sba(imap
Cell
p653
(dp654
g4
I0
sba(imap
Cell
p655
(dp656
g4
I0
sba(imap
Cell
p657
(dp658
g4
I0
sba(imap
Cell
p659
(dp660
g4
I0
sba(imap
Cell
p661
(dp662
g4
I0
sba(imap
Cell
p663
(dp664
g4
I0
sba(imap
Cell
p665
(dp666
g4
I0
sba(imap
Cell
p667
(dp668
g4
I0
sba(imap
Cell
p669
(dp670
g4
I0
sba(imap
Cell
p671
(dp672
g4
I0
sba(imap
Cell
p673
(dp674
g4
I0
sba(imap
Cell
p675
(dp676
g4
I0
sba(imap
Cell
p677
(dp678
g4
I0
sba(imap
Cell
p679
(dp680
g4
I0
sba(imap
Cell
p681
(dp682
g4
I0
sba(imap
Cell
p683
(dp684
g4
I0
sba(imap
Cell
p685
(dp686
g4
I0
sba(imap
Cell
p687
(dp688
g4
I0
sba(imap
Cell
p689
(dp690
g4
I0
sba(imap
Cell
p691
(dp692
g4
I0
sba(imap
Cell
p693
(dp694
g4
I0
sba(imap
Cell
p695
(dp696
g4
I0
sba(imap
Cell
p697
(dp698
g4
I0
sba(imap
Cell
p699
(dp700
g4
I0
sba(imap
Cell
p701
(dp702
g4
I0
sba(imap
Cell
p703
(dp704
g4
I0
sba(imap
Cell
p705
(dp706
g4
I0
sba(imap
Cell
p707
(dp708
g4
I0
sba(imap
Cell
p709
(dp710
g4
I0
sba(imap
Cell
p711
(dp712
g4
I0
sba(imap
Cell
p713
(dp714
g4
I0
sba(imap
Cell
p715
(dp716
g4
I0
sba(imap
Cell
p717
(dp718
g4
I0
sba(imap
Cell
p719
(dp720
g4
I0
sba(imap
Cell
p721
(dp722
g4
I0
sba(imap
Cell
p723
(dp724
g4
I0
sba(imap
Cell
p725
(dp726
g4
I0
sba(imap
Cell
p727
(dp728
g4
I0
sba(imap
Cell
p729
(dp730
g4
I0
sba(imap
Cell
p731
(dp732
g4
I0
sba(imap
Cell
p733
(dp734
g4
I0
sba(imap
Cell
p735
(dp736
g4
I0
sba(imap
Cell
p737
(dp738
g4
I0
sba(imap
Cell
p739
(dp740
g4
I0
sba(imap
Cell
p741
(dp742
g4
I0
sba(imap
Cell
p743
(dp744
g4
I0
sba(imap
Cell
p745
(dp746
g4
I0
sba(imap
Cell
p747
(dp748
g4
I0
sba(imap
Cell
p749
(dp750
g4
I0
sba(imap
Cell
p751
(dp752
g4
I0
sbaa(lp753
(imap
Cell
p754
(dp755
g4
I0
sba(imap
Cell
p756
(dp757
g4
I0
sba(imap
Cell
p758
(dp759
g4
I0
sba(imap
Cell
p760
(dp761
g4
I0
sba(imap
Cell
p762
(dp763
g4
I0
sba(imap
Cell
p764
(dp765
g4
I56
sba(imap
Cell
p766
(dp767
g4
I0
sba(imap
Cell
p768
(dp769
g4
I0
sba(imap
Cell
p770
(dp771
g4
I0
sba(imap
Cell
p772
(dp773
g4
I0
sba(imap
Cell
p774
(dp775
g4
I0
sba(imap
Cell
p776
(dp777
g4
I0
sba(imap
Cell
p778
(dp779
g4
I0
sba(imap
Cell
p780
(dp781
g4
I0
sba(imap
Cell
p782
(dp783
g4
I0
sba(imap
Cell
p784
(dp785
g4
I0
sba(imap
Cell
p786
(dp787
g4
I0
sba(imap
Cell
p788
(dp789
g4
I0
sba(imap
Cell
p790
(dp791
g4
I0
sba(imap
Cell
p792
(dp793
g4
I0
sba(imap
Cell
p794
(dp795
g4
I0
sba(imap
Cell
p796
(dp797
g4
I0
sba(imap
Cell
p798
(dp799
g4
I0
sba(imap
Cell
p800
(dp801
g4
I0
sba(imap
Cell
p802
(dp803
g4
I0
sba(imap
Cell
p804
(dp805
g4
I0
sba(imap
Cell
p806
(dp807
g4
I0
sba(imap
Cell
p808
(dp809
g4
I0
sba(imap
Cell
p810
(dp811
g4
I0
sba(imap
Cell
p812
(dp813
g4
I0
sba(imap
Cell
p814
(dp815
g4
I56
sba(imap
Cell
p816
(dp817
g4
I0
sba(imap
Cell
p818
(dp819
g4
I0
sba(imap
Cell
p820
(dp821
g4
I0
sba(imap
Cell
p822
(dp823
g4
I0
sba(imap
Cell
p824
(dp825
g4
I0
sba(imap
Cell
p826
(dp827
g4
I0
sba(imap
Cell
p828
(dp829
g4
I0
sba(imap
Cell
p830
(dp831
g4
I0
sba(imap
Cell
p832
(dp833
g4
I0
sba(imap
Cell
p834
(dp835
g4
I0
sba(imap
Cell
p836
(dp837
g4
I0
sba(imap
Cell
p838
(dp839
g4
I0
sba(imap
Cell
p840
(dp841
g4
I0
sba(imap
Cell
p842
(dp843
g4
I0
sba(imap
Cell
p844
(dp845
g4
I0
sba(imap
Cell
p846
(dp847
g4
I0
sba(imap
Cell
p848
(dp849
g4
I0
sba(imap
Cell
p850
(dp851
g4
I0
sba(imap
Cell
p852
(dp853
g4
I0
sba(imap
Cell
p854
(dp855
g4
I0
sba(imap
Cell
p856
(dp857
g4
I0
sba(imap
Cell
p858
(dp859
g4
I0
sba(imap
Cell
p860
(dp861
g4
I0
sba(imap
Cell
p862
(dp863
g4
I0
sba(imap
Cell
p864
(dp865
g4
I0
sba(imap
Cell
p866
(dp867
g4
I0
sba(imap
Cell
p868
(dp869
g4
I0
sba(imap
Cell
p870
(dp871
g4
I0
sba(imap
Cell
p872
(dp873
g4
I0
sba(imap
Cell
p874
(dp875
g4
I0
sba(imap
Cell
p876
(dp877
g4
I0
sba(imap
Cell
p878
(dp879
g4
I0
sba(imap
Cell
p880
(dp881
g4
I0
sba(imap
Cell
p882
(dp883
g4
I0
sba(imap
Cell
p884
(dp885
g4
I0
sba(imap
Cell
p886
(dp887
g4
I0
sba(imap
Cell
p888
(dp889
g4
I0
sba(imap
Cell
p890
(dp891
g4
I0
sba(imap
Cell
p892
(dp893
g4
I0
sba(imap
Cell
p894
(dp895
g4
I0
sba(imap
Cell
p896
(dp897
g4
I0
sba(imap
Cell
p898
(dp899
g4
I0
sba(imap
Cell
p900
(dp901
g4
I0
sba(imap
Cell
p902
(dp903
g4
I0
sba(imap
Cell
p904
(dp905
g4
I0
sba(imap
Cell
p906
(dp907
g4
I0
sba(imap
Cell
p908
(dp909
g4
I0
sba(imap
Cell
p910
(dp911
g4
I0
sba(imap
Cell
p912
(dp913
g4
I0
sba(imap
Cell
p914
(dp915
g4
I0
sba(imap
Cell
p916
(dp917
g4
I0
sba(imap
Cell
p918
(dp919
g4
I0
sba(imap
Cell
p920
(dp921
g4
I0
sba(imap
Cell
p922
(dp923
g4
I0
sba(imap
Cell
p924
(dp925
g4
I0
sba(imap
Cell
p926
(dp927
g4
I0
sba(imap
Cell
p928
(dp929
g4
I0
sba(imap
Cell
p930
(dp931
g4
I0
sba(imap
Cell
p932
(dp933
g4
I0
sba(imap
Cell
p934
(dp935
g4
I0
sba(imap
Cell
p936
(dp937
g4
I0
sba(imap
Cell
p938
(dp939
g4
I0
sba(imap
Cell
p940
(dp941
g4
I0
sba(imap
Cell
p942
(dp943
g4
I0
sba(imap
Cell
p944
(dp945
g4
I0
sba(imap
Cell
p946
(dp947
g4
I0
sba(imap
Cell
p948
(dp949
g4
I0
sba(imap
Cell
p950
(dp951
g4
I0
sba(imap
Cell
p952
(dp953
g4
I0
sba(imap
Cell
p954
(dp955
g4
I0
sba(imap
Cell
p956
(dp957
g4
I0
sba(imap
Cell
p958
(dp959
g4
I0
sba(imap
Cell
p960
(dp961
g4
I0
sba(imap
Cell
p962
(dp963
g4
I56
sba(imap
Cell
p964
(dp965
g4
I0
sba(imap
Cell
p966
(dp967
g4
I0
sba(imap
Cell
p968
(dp969
g4
I0
sba(imap
Cell
p970
(dp971
g4
I0
sba(imap
Cell
p972
(dp973
g4
I0
sba(imap
Cell
p974
(dp975
g4
I0
sba(imap
Cell
p976
(dp977
g4
I0
sba(imap
Cell
p978
(dp979
g4
I0
sba(imap
Cell
p980
(dp981
g4
I0
sba(imap
Cell
p982
(dp983
g4
I0
sba(imap
Cell
p984
(dp985
g4
I0
sba(imap
Cell
p986
(dp987
g4
I0
sba(imap
Cell
p988
(dp989
g4
I0
sba(imap
Cell
p990
(dp991
g4
I0
sba(imap
Cell
p992
(dp993
g4
I0
sba(imap
Cell
p994
(dp995
g4
I0
sba(imap
Cell
p996
(dp997
g4
I0
sba(imap
Cell
p998
(dp999
g4
I0
sba(imap
Cell
p1000
(dp1001
g4
I0
sba(imap
Cell
p1002
(dp1003
g4
I0
sba(imap
Cell
p1004
(dp1005
g4
I0
sba(imap
Cell
p1006
(dp1007
g4
I0
sba(imap
Cell
p1008
(dp1009
g4
I0
sba(imap
Cell
p1010
(dp1011
g4
I0
sba(imap
Cell
p1012
(dp1013
g4
I0
sba(imap
Cell
p1014
(dp1015
g4
I0
sba(imap
Cell
p1016
(dp1017
g4
I0
sba(imap
Cell
p1018
(dp1019
g4
I0
sba(imap
Cell
p1020
(dp1021
g4
I0
sba(imap
Cell
p1022
(dp1023
g4
I0
sba(imap
Cell
p1024
(dp1025
g4
I185
sba(imap
Cell
p1026
(dp1027
g4
I185
sba(imap
Cell
p1028
(dp1029
g4
I185
sba(imap
Cell
p1030
(dp1031
g4
I0
sba(imap
Cell
p1032
(dp1033
g4
I0
sba(imap
Cell
p1034
(dp1035
g4
I0
sba(imap
Cell
p1036
(dp1037
g4
I0
sba(imap
Cell
p1038
(dp1039
g4
I0
sba(imap
Cell
p1040
(dp1041
g4
I0
sba(imap
Cell
p1042
(dp1043
g4
I0
sba(imap
Cell
p1044
(dp1045
g4
I0
sba(imap
Cell
p1046
(dp1047
g4
I0
sba(imap
Cell
p1048
(dp1049
g4
I0
sba(imap
Cell
p1050
(dp1051
g4
I0
sba(imap
Cell
p1052
(dp1053
g4
I0
sba(imap
Cell
p1054
(dp1055
g4
I0
sba(imap
Cell
p1056
(dp1057
g4
I0
sba(imap
Cell
p1058
(dp1059
g4
I0
sba(imap
Cell
p1060
(dp1061
g4
I0
sba(imap
Cell
p1062
(dp1063
g4
I0
sba(imap
Cell
p1064
(dp1065
g4
I0
sba(imap
Cell
p1066
(dp1067
g4
I0
sba(imap
Cell
p1068
(dp1069
g4
I0
sba(imap
Cell
p1070
(dp1071
g4
I0
sba(imap
Cell
p1072
(dp1073
g4
I0
sba(imap
Cell
p1074
(dp1075
g4
I0
sba(imap
Cell
p1076
(dp1077
g4
I0
sba(imap
Cell
p1078
(dp1079
g4
I0
sba(imap
Cell
p1080
(dp1081
g4
I0
sba(imap
Cell
p1082
(dp1083
g4
I0
sba(imap
Cell
p1084
(dp1085
g4
I0
sba(imap
Cell
p1086
(dp1087
g4
I0
sba(imap
Cell
p1088
(dp1089
g4
I0
sba(imap
Cell
p1090
(dp1091
g4
I0
sba(imap
Cell
p1092
(dp1093
g4
I0
sba(imap
Cell
p1094
(dp1095
g4
I0
sba(imap
Cell
p1096
(dp1097
g4
I0
sba(imap
Cell
p1098
(dp1099
g4
I0
sba(imap
Cell
p1100
(dp1101
g4
I0
sba(imap
Cell
p1102
(dp1103
g4
I0
sba(imap
Cell
p1104
(dp1105
g4
I0
sba(imap
Cell
p1106
(dp1107
g4
I0
sba(imap
Cell
p1108
(dp1109
g4
I0
sba(imap
Cell
p1110
(dp1111
g4
I0
sba(imap
Cell
p1112
(dp1113
g4
I0
sba(imap
Cell
p1114
(dp1115
g4
I0
sba(imap
Cell
p1116
(dp1117
g4
I0
sba(imap
Cell
p1118
(dp1119
g4
I56
sba(imap
Cell
p1120
(dp1121
g4
I0
sba(imap
Cell
p1122
(dp1123
g4
I0
sba(imap
Cell
p1124
(dp1125
g4
I0
sba(imap
Cell
p1126
(dp1127
g4
I137
sba(imap
Cell
p1128
(dp1129
g4
I137
sba(imap
Cell
p1130
(dp1131
g4
I0
sba(imap
Cell
p1132
(dp1133
g4
I0
sba(imap
Cell
p1134
(dp1135
g4
I0
sba(imap
Cell
p1136
(dp1137
g4
I0
sba(imap
Cell
p1138
(dp1139
g4
I0
sba(imap
Cell
p1140
(dp1141
g4
I0
sba(imap
Cell
p1142
(dp1143
g4
I0
sba(imap
Cell
p1144
(dp1145
g4
I0
sba(imap
Cell
p1146
(dp1147
g4
I0
sba(imap
Cell
p1148
(dp1149
g4
I0
sba(imap
Cell
p1150
(dp1151
g4
I0
sba(imap
Cell
p1152
(dp1153
g4
I0
sba(imap
Cell
p1154
(dp1155
g4
I0
sba(imap
Cell
p1156
(dp1157
g4
I0
sba(imap
Cell
p1158
(dp1159
g4
I0
sba(imap
Cell
p1160
(dp1161
g4
I56
sba(imap
Cell
p1162
(dp1163
g4
I56
sba(imap
Cell
p1164
(dp1165
g4
I0
sba(imap
Cell
p1166
(dp1167
g4
I56
sba(imap
Cell
p1168
(dp1169
g4
I0
sba(imap
Cell
p1170
(dp1171
g4
I0
sba(imap
Cell
p1172
(dp1173
g4
I0
sba(imap
Cell
p1174
(dp1175
g4
I137
sba(imap
Cell
p1176
(dp1177
g4
I137
sba(imap
Cell
p1178
(dp1179
g4
I137
sba(imap
Cell
p1180
(dp1181
g4
I137
sba(imap
Cell
p1182
(dp1183
g4
I0
sba(imap
Cell
p1184
(dp1185
g4
I0
sba(imap
Cell
p1186
(dp1187
g4
I0
sba(imap
Cell
p1188
(dp1189
g4
I0
sba(imap
Cell
p1190
(dp1191
g4
I0
sba(imap
Cell
p1192
(dp1193
g4
I0
sba(imap
Cell
p1194
(dp1195
g4
I0
sba(imap
Cell
p1196
(dp1197
g4
I0
sba(imap
Cell
p1198
(dp1199
g4
I0
sba(imap
Cell
p1200
(dp1201
g4
I0
sba(imap
Cell
p1202
(dp1203
g4
I0
sba(imap
Cell
p1204
(dp1205
g4
I0
sba(imap
Cell
p1206
(dp1207
g4
I0
sba(imap
Cell
p1208
(dp1209
g4
I0
sba(imap
Cell
p1210
(dp1211
g4
I0
sba(imap
Cell
p1212
(dp1213
g4
I0
sba(imap
Cell
p1214
(dp1215
g4
I0
sba(imap
Cell
p1216
(dp1217
g4
I0
sba(imap
Cell
p1218
(dp1219
g4
I0
sba(imap
Cell
p1220
(dp1221
g4
I0
sba(imap
Cell
p1222
(dp1223
g4
I0
sba(imap
Cell
p1224
(dp1225
g4
I0
sba(imap
Cell
p1226
(dp1227
g4
I137
sba(imap
Cell
p1228
(dp1229
g4
I137
sba(imap
Cell
p1230
(dp1231
g4
I137
sba(imap
Cell
p1232
(dp1233
g4
I137
sba(imap
Cell
p1234
(dp1235
g4
I0
sba(imap
Cell
p1236
(dp1237
g4
I0
sba(imap
Cell
p1238
(dp1239
g4
I0
sba(imap
Cell
p1240
(dp1241
g4
I0
sba(imap
Cell
p1242
(dp1243
g4
I0
sba(imap
Cell
p1244
(dp1245
g4
I0
sba(imap
Cell
p1246
(dp1247
g4
I0
sba(imap
Cell
p1248
(dp1249
g4
I0
sba(imap
Cell
p1250
(dp1251
g4
I0
sba(imap
Cell
p1252
(dp1253
g4
I0
sba(imap
Cell
p1254
(dp1255
g4
I0
sba(imap
Cell
p1256
(dp1257
g4
I0
sba(imap
Cell
p1258
(dp1259
g4
I0
sba(imap
Cell
p1260
(dp1261
g4
I0
sba(imap
Cell
p1262
(dp1263
g4
I0
sba(imap
Cell
p1264
(dp1265
g4
I0
sba(imap
Cell
p1266
(dp1267
g4
I0
sba(imap
Cell
p1268
(dp1269
g4
I0
sba(imap
Cell
p1270
(dp1271
g4
I0
sba(imap
Cell
p1272
(dp1273
g4
I0
sba(imap
Cell
p1274
(dp1275
g4
I0
sba(imap
Cell
p1276
(dp1277
g4
I0
sba(imap
Cell
p1278
(dp1279
g4
I0
sba(imap
Cell
p1280
(dp1281
g4
I0
sba(imap
Cell
p1282
(dp1283
g4
I0
sba(imap
Cell
p1284
(dp1285
g4
I0
sba(imap
Cell
p1286
(dp1287
g4
I0
sba(imap
Cell
p1288
(dp1289
g4
I0
sba(imap
Cell
p1290
(dp1291
g4
I0
sba(imap
Cell
p1292
(dp1293
g4
I0
sba(imap
Cell
p1294
(dp1295
g4
I0
sba(imap
Cell
p1296
(dp1297
g4
I0
sba(imap
Cell
p1298
(dp1299
g4
I0
sba(imap
Cell
p1300
(dp1301
g4
I0
sba(imap
Cell
p1302
(dp1303
g4
I0
sba(imap
Cell
p1304
(dp1305
g4
I0
sba(imap
Cell
p1306
(dp1307
g4
I0
sba(imap
Cell
p1308
(dp1309
g4
I0
sba(imap
Cell
p1310
(dp1311
g4
I0
sba(imap
Cell
p1312
(dp1313
g4
I0
sba(imap
Cell
p1314
(dp1315
g4
I0
sba(imap
Cell
p1316
(dp1317
g4
I0
sba(imap
Cell
p1318
(dp1319
g4
I0
sba(imap
Cell
p1320
(dp1321
g4
I0
sba(imap
Cell
p1322
(dp1323
g4
I0
sba(imap
Cell
p1324
(dp1325
g4
I0
sba(imap
Cell
p1326
(dp1327
g4
I0
sba(imap
Cell
p1328
(dp1329
g4
I0
sba(imap
Cell
p1330
(dp1331
g4
I0
sba(imap
Cell
p1332
(dp1333
g4
I0
sba(imap
Cell
p1334
(dp1335
g4
I0
sba(imap
Cell
p1336
(dp1337
g4
I0
sba(imap
Cell
p1338
(dp1339
g4
I0
sba(imap
Cell
p1340
(dp1341
g4
I0
sba(imap
Cell
p1342
(dp1343
g4
I0
sba(imap
Cell
p1344
(dp1345
g4
I0
sba(imap
Cell
p1346
(dp1347
g4
I0
sba(imap
Cell
p1348
(dp1349
g4
I0
sba(imap
Cell
p1350
(dp1351
g4
I0
sba(imap
Cell
p1352
(dp1353
g4
I0
sba(imap
Cell
p1354
(dp1355
g4
I0
sba(imap
Cell
p1356
(dp1357
g4
I0
sba(imap
Cell
p1358
(dp1359
g4
I0
sba(imap
Cell
p1360
(dp1361
g4
I0
sba(imap
Cell
p1362
(dp1363
g4
I0
sba(imap
Cell
p1364
(dp1365
g4
I0
sba(imap
Cell
p1366
(dp1367
g4
I0
sba(imap
Cell
p1368
(dp1369
g4
I0
sba(imap
Cell
p1370
(dp1371
g4
I0
sba(imap
Cell
p1372
(dp1373
g4
I0
sba(imap
Cell
p1374
(dp1375
g4
I0
sba(imap
Cell
p1376
(dp1377
g4
I0
sba(imap
Cell
p1378
(dp1379
g4
I0
sba(imap
Cell
p1380
(dp1381
g4
I0
sba(imap
Cell
p1382
(dp1383
g4
I0
sba(imap
Cell
p1384
(dp1385
g4
I0
sba(imap
Cell
p1386
(dp1387
g4
I0
sba(imap
Cell
p1388
(dp1389
g4
I0
sba(imap
Cell
p1390
(dp1391
g4
I0
sba(imap
Cell
p1392
(dp1393
g4
I0
sba(imap
Cell
p1394
(dp1395
g4
I0
sba(imap
Cell
p1396
(dp1397
g4
I0
sba(imap
Cell
p1398
(dp1399
g4
I0
sba(imap
Cell
p1400
(dp1401
g4
I0
sba(imap
Cell
p1402
(dp1403
g4
I0
sba(imap
Cell
p1404
(dp1405
g4
I0
sba(imap
Cell
p1406
(dp1407
g4
I0
sba(imap
Cell
p1408
(dp1409
g4
I0
sba(imap
Cell
p1410
(dp1411
g4
I0
sba(imap
Cell
p1412
(dp1413
g4
I0
sba(imap
Cell
p1414
(dp1415
g4
I0
sba(imap
Cell
p1416
(dp1417
g4
I0
sba(imap
Cell
p1418
(dp1419
g4
I0
sba(imap
Cell
p1420
(dp1421
g4
I0
sba(imap
Cell
p1422
(dp1423
g4
I0
sba(imap
Cell
p1424
(dp1425
g4
I0
sba(imap
Cell
p1426
(dp1427
g4
I0
sba(imap
Cell
p1428
(dp1429
g4
I0
sba(imap
Cell
p1430
(dp1431
g4
I0
sba(imap
Cell
p1432
(dp1433
g4
I0
sba(imap
Cell
p1434
(dp1435
g4
I0
sba(imap
Cell
p1436
(dp1437
g4
I0
sba(imap
Cell
p1438
(dp1439
g4
I0
sba(imap
Cell
p1440
(dp1441
g4
I0
sba(imap
Cell
p1442
(dp1443
g4
I0
sba(imap
Cell
p1444
(dp1445
g4
I0
sba(imap
Cell
p1446
(dp1447
g4
I0
sba(imap
Cell
p1448
(dp1449
g4
I0
sba(imap
Cell
p1450
(dp1451
g4
I0
sba(imap
Cell
p1452
(dp1453
g4
I0
sba(imap
Cell
p1454
(dp1455
g4
I0
sba(imap
Cell
p1456
(dp1457
g4
I0
sba(imap
Cell
p1458
(dp1459
g4
I0
sba(imap
Cell
p1460
(dp1461
g4
I0
sba(imap
Cell
p1462
(dp1463
g4
I0
sba(imap
Cell
p1464
(dp1465
g4
I0
sba(imap
Cell
p1466
(dp1467
g4
I0
sba(imap
Cell
p1468
(dp1469
g4
I0
sba(imap
Cell
p1470
(dp1471
g4
I0
sba(imap
Cell
p1472
(dp1473
g4
I0
sba(imap
Cell
p1474
(dp1475
g4
I0
sba(imap
Cell
p1476
(dp1477
g4
I0
sba(imap
Cell
p1478
(dp1479
g4
I0
sba(imap
Cell
p1480
(dp1481
g4
I0
sba(imap
Cell
p1482
(dp1483
g4
I0
sba(imap
Cell
p1484
(dp1485
g4
I0
sba(imap
Cell
p1486
(dp1487
g4
I0
sba(imap
Cell
p1488
(dp1489
g4
I0
sba(imap
Cell
p1490
(dp1491
g4
I0
sba(imap
Cell
p1492
(dp1493
g4
I0
sba(imap
Cell
p1494
(dp1495
g4
I0
sba(imap
Cell
p1496
(dp1497
g4
I0
sba(imap
Cell
p1498
(dp1499
g4
I0
sba(imap
Cell
p1500
(dp1501
g4
I0
sba(imap
Cell
p1502
(dp1503
g4
I0
sbaa(lp1504
(imap
Cell
p1505
(dp1506
g4
I0
sba(imap
Cell
p1507
(dp1508
g4
I0
sba(imap
Cell
p1509
(dp1510
g4
I0
sba(imap
Cell
p1511
(dp1512
g4
I0
sba(imap
Cell
p1513
(dp1514
g4
I0
sba(imap
Cell
p1515
(dp1516
g4
I0
sba(imap
Cell
p1517
(dp1518
g4
I0
sba(imap
Cell
p1519
(dp1520
g4
I0
sba(imap
Cell
p1521
(dp1522
g4
I0
sba(imap
Cell
p1523
(dp1524
g4
I0
sba(imap
Cell
p1525
(dp1526
g4
I0
sba(imap
Cell
p1527
(dp1528
g4
I0
sba(imap
Cell
p1529
(dp1530
g4
I0
sba(imap
Cell
p1531
(dp1532
g4
I0
sba(imap
Cell
p1533
(dp1534
g4
I0
sba(imap
Cell
p1535
(dp1536
g4
I0
sba(imap
Cell
p1537
(dp1538
g4
I0
sba(imap
Cell
p1539
(dp1540
g4
I0
sba(imap
Cell
p1541
(dp1542
g4
I0
sba(imap
Cell
p1543
(dp1544
g4
I0
sba(imap
Cell
p1545
(dp1546
g4
I0
sba(imap
Cell
p1547
(dp1548
g4
I0
sba(imap
Cell
p1549
(dp1550
g4
I0
sba(imap
Cell
p1551
(dp1552
g4
I0
sba(imap
Cell
p1553
(dp1554
g4
I0
sba(imap
Cell
p1555
(dp1556
g4
I0
sba(imap
Cell
p1557
(dp1558
g4
I0
sba(imap
Cell
p1559
(dp1560
g4
I0
sba(imap
Cell
p1561
(dp1562
g4
I0
sba(imap
Cell
p1563
(dp1564
g4
I0
sba(imap
Cell
p1565
(dp1566
g4
I0
sba(imap
Cell
p1567
(dp1568
g4
I0
sba(imap
Cell
p1569
(dp1570
g4
I0
sba(imap
Cell
p1571
(dp1572
g4
I0
sba(imap
Cell
p1573
(dp1574
g4
I0
sba(imap
Cell
p1575
(dp1576
g4
I0
sba(imap
Cell
p1577
(dp1578
g4
I0
sba(imap
Cell
p1579
(dp1580
g4
I0
sba(imap
Cell
p1581
(dp1582
g4
I0
sba(imap
Cell
p1583
(dp1584
g4
I0
sba(imap
Cell
p1585
(dp1586
g4
I0
sba(imap
Cell
p1587
(dp1588
g4
I0
sba(imap
Cell
p1589
(dp1590
g4
I0
sba(imap
Cell
p1591
(dp1592
g4
I0
sba(imap
Cell
p1593
(dp1594
g4
I0
sba(imap
Cell
p1595
(dp1596
g4
I0
sba(imap
Cell
p1597
(dp1598
g4
I0
sba(imap
Cell
p1599
(dp1600
g4
I0
sba(imap
Cell
p1601
(dp1602
g4
I0
sba(imap
Cell
p1603
(dp1604
g4
I0
sba(imap
Cell
p1605
(dp1606
g4
I0
sba(imap
Cell
p1607
(dp1608
g4
I0
sba(imap
Cell
p1609
(dp1610
g4
I0
sba(imap
Cell
p1611
(dp1612
g4
I0
sba(imap
Cell
p1613
(dp1614
g4
I0
sba(imap
Cell
p1615
(dp1616
g4
I0
sba(imap
Cell
p1617
(dp1618
g4
I0
sba(imap
Cell
p1619
(dp1620
g4
I0
sba(imap
Cell
p1621
(dp1622
g4
I0
sba(imap
Cell
p1623
(dp1624
g4
I0
sba(imap
Cell
p1625
(dp1626
g4
I0
sba(imap
Cell
p1627
(dp1628
g4
I0
sba(imap
Cell
p1629
(dp1630
g4
I0
sba(imap
Cell
p1631
(dp1632
g4
I0
sba(imap
Cell
p1633
(dp1634
g4
I0
sba(imap
Cell
p1635
(dp1636
g4
I0
sba(imap
Cell
p1637
(dp1638
g4
I0
sba(imap
Cell
p1639
(dp1640
g4
I0
sba(imap
Cell
p1641
(dp1642
g4
I0
sba(imap
Cell
p1643
(dp1644
g4
I0
sba(imap
Cell
p1645
(dp1646
g4
I0
sba(imap
Cell
p1647
(dp1648
g4
I0
sba(imap
Cell
p1649
(dp1650
g4
I0
sba(imap
Cell
p1651
(dp1652
g4
I0
sba(imap
Cell
p1653
(dp1654
g4
I0
sba(imap
Cell
p1655
(dp1656
g4
I0
sba(imap
Cell
p1657
(dp1658
g4
I0
sba(imap
Cell
p1659
(dp1660
g4
I0
sba(imap
Cell
p1661
(dp1662
g4
I0
sba(imap
Cell
p1663
(dp1664
g4
I0
sba(imap
Cell
p1665
(dp1666
g4
I0
sba(imap
Cell
p1667
(dp1668
g4
I0
sba(imap
Cell
p1669
(dp1670
g4
I0
sba(imap
Cell
p1671
(dp1672
g4
I0
sba(imap
Cell
p1673
(dp1674
g4
I0
sba(imap
Cell
p1675
(dp1676
g4
I0
sba(imap
Cell
p1677
(dp1678
g4
I0
sba(imap
Cell
p1679
(dp1680
g4
I0
sba(imap
Cell
p1681
(dp1682
g4
I0
sba(imap
Cell
p1683
(dp1684
g4
I0
sba(imap
Cell
p1685
(dp1686
g4
I0
sba(imap
Cell
p1687
(dp1688
g4
I0
sba(imap
Cell
p1689
(dp1690
g4
I0
sba(imap
Cell
p1691
(dp1692
g4
I0
sba(imap
Cell
p1693
(dp1694
g4
I0
sba(imap
Cell
p1695
(dp1696
g4
I0
sba(imap
Cell
p1697
(dp1698
g4
I0
sba(imap
Cell
p1699
(dp1700
g4
I0
sba(imap
Cell
p1701
(dp1702
g4
I0
sba(imap
Cell
p1703
(dp1704
g4
I0
sba(imap
Cell
p1705
(dp1706
g4
I0
sba(imap
Cell
p1707
(dp1708
g4
I0
sba(imap
Cell
p1709
(dp1710
g4
I0
sba(imap
Cell
p1711
(dp1712
g4
I0
sba(imap
Cell
p1713
(dp1714
g4
I0
sba(imap
Cell
p1715
(dp1716
g4
I0
sba(imap
Cell
p1717
(dp1718
g4
I0
sba(imap
Cell
p1719
(dp1720
g4
I0
sba(imap
Cell
p1721
(dp1722
g4
I0
sba(imap
Cell
p1723
(dp1724
g4
I0
sba(imap
Cell
p1725
(dp1726
g4
I0
sba(imap
Cell
p1727
(dp1728
g4
I0
sba(imap
Cell
p1729
(dp1730
g4
I0
sba(imap
Cell
p1731
(dp1732
g4
I0
sba(imap
Cell
p1733
(dp1734
g4
I0
sba(imap
Cell
p1735
(dp1736
g4
I0
sba(imap
Cell
p1737
(dp1738
g4
I0
sba(imap
Cell
p1739
(dp1740
g4
I0
sba(imap
Cell
p1741
(dp1742
g4
I0
sba(imap
Cell
p1743
(dp1744
g4
I0
sba(imap
Cell
p1745
(dp1746
g4
I0
sba(imap
Cell
p1747
(dp1748
g4
I0
sba(imap
Cell
p1749
(dp1750
g4
I0
sba(imap
Cell
p1751
(dp1752
g4
I0
sba(imap
Cell
p1753
(dp1754
g4
I0
sba(imap
Cell
p1755
(dp1756
g4
I0
sba(imap
Cell
p1757
(dp1758
g4
I0
sba(imap
Cell
p1759
(dp1760
g4
I0
sba(imap
Cell
p1761
(dp1762
g4
I0
sba(imap
Cell
p1763
(dp1764
g4
I0
sba(imap
Cell
p1765
(dp1766
g4
I0
sba(imap
Cell
p1767
(dp1768
g4
I0
sba(imap
Cell
p1769
(dp1770
g4
I0
sba(imap
Cell
p1771
(dp1772
g4
I0
sba(imap
Cell
p1773
(dp1774
g4
I0
sba(imap
Cell
p1775
(dp1776
g4
I0
sba(imap
Cell
p1777
(dp1778
g4
I0
sba(imap
Cell
p1779
(dp1780
g4
I0
sba(imap
Cell
p1781
(dp1782
g4
I0
sba(imap
Cell
p1783
(dp1784
g4
I0
sba(imap
Cell
p1785
(dp1786
g4
I0
sba(imap
Cell
p1787
(dp1788
g4
I0
sba(imap
Cell
p1789
(dp1790
g4
I0
sba(imap
Cell
p1791
(dp1792
g4
I0
sba(imap
Cell
p1793
(dp1794
g4
I0
sba(imap
Cell
p1795
(dp1796
g4
I0
sba(imap
Cell
p1797
(dp1798
g4
I0
sba(imap
Cell
p1799
(dp1800
g4
I0
sba(imap
Cell
p1801
(dp1802
g4
I0
sba(imap
Cell
p1803
(dp1804
g4
I0
sba(imap
Cell
p1805
(dp1806
g4
I0
sba(imap
Cell
p1807
(dp1808
g4
I0
sba(imap
Cell
p1809
(dp1810
g4
I0
sba(imap
Cell
p1811
(dp1812
g4
I0
sba(imap
Cell
p1813
(dp1814
g4
I0
sba(imap
Cell
p1815
(dp1816
g4
I0
sba(imap
Cell
p1817
(dp1818
g4
I0
sba(imap
Cell
p1819
(dp1820
g4
I0
sba(imap
Cell
p1821
(dp1822
g4
I0
sba(imap
Cell
p1823
(dp1824
g4
I0
sba(imap
Cell
p1825
(dp1826
g4
I0
sba(imap
Cell
p1827
(dp1828
g4
I0
sba(imap
Cell
p1829
(dp1830
g4
I0
sba(imap
Cell
p1831
(dp1832
g4
I0
sba(imap
Cell
p1833
(dp1834
g4
I0
sba(imap
Cell
p1835
(dp1836
g4
I0
sba(imap
Cell
p1837
(dp1838
g4
I0
sba(imap
Cell
p1839
(dp1840
g4
I0
sba(imap
Cell
p1841
(dp1842
g4
I0
sba(imap
Cell
p1843
(dp1844
g4
I0
sba(imap
Cell
p1845
(dp1846
g4
I0
sba(imap
Cell
p1847
(dp1848
g4
I0
sba(imap
Cell
p1849
(dp1850
g4
I0
sba(imap
Cell
p1851
(dp1852
g4
I0
sba(imap
Cell
p1853
(dp1854
g4
I0
sba(imap
Cell
p1855
(dp1856
g4
I0
sba(imap
Cell
p1857
(dp1858
g4
I0
sba(imap
Cell
p1859
(dp1860
g4
I0
sba(imap
Cell
p1861
(dp1862
g4
I0
sba(imap
Cell
p1863
(dp1864
g4
I0
sba(imap
Cell
p1865
(dp1866
g4
I0
sba(imap
Cell
p1867
(dp1868
g4
I0
sba(imap
Cell
p1869
(dp1870
g4
I0
sba(imap
Cell
p1871
(dp1872
g4
I0
sba(imap
Cell
p1873
(dp1874
g4
I0
sba(imap
Cell
p1875
(dp1876
g4
I0
sba(imap
Cell
p1877
(dp1878
g4
I0
sba(imap
Cell
p1879
(dp1880
g4
I0
sba(imap
Cell
p1881
(dp1882
g4
I0
sba(imap
Cell
p1883
(dp1884
g4
I0
sba(imap
Cell
p1885
(dp1886
g4
I0
sba(imap
Cell
p1887
(dp1888
g4
I0
sba(imap
Cell
p1889
(dp1890
g4
I0
sba(imap
Cell
p1891
(dp1892
g4
I0
sba(imap
Cell
p1893
(dp1894
g4
I0
sba(imap
Cell
p1895
(dp1896
g4
I0
sba(imap
Cell
p1897
(dp1898
g4
I0
sba(imap
Cell
p1899
(dp1900
g4
I0
sba(imap
Cell
p1901
(dp1902
g4
I0
sba(imap
Cell
p1903
(dp1904
g4
I0
sba(imap
Cell
p1905
(dp1906
g4
I0
sba(imap
Cell
p1907
(dp1908
g4
I0
sba(imap
Cell
p1909
(dp1910
g4
I0
sba(imap
Cell
p1911
(dp1912
g4
I0
sba(imap
Cell
p1913
(dp1914
g4
I0
sba(imap
Cell
p1915
(dp1916
g4
I0
sba(imap
Cell
p1917
(dp1918
g4
I0
sba(imap
Cell
p1919
(dp1920
g4
I0
sba(imap
Cell
p1921
(dp1922
g4
I0
sba(imap
Cell
p1923
(dp1924
g4
I0
sba(imap
Cell
p1925
(dp1926
g4
I0
sba(imap
Cell
p1927
(dp1928
g4
I0
sba(imap
Cell
p1929
(dp1930
g4
I0
sba(imap
Cell
p1931
(dp1932
g4
I0
sba(imap
Cell
p1933
(dp1934
g4
I0
sba(imap
Cell
p1935
(dp1936
g4
I0
sba(imap
Cell
p1937
(dp1938
g4
I0
sba(imap
Cell
p1939
(dp1940
g4
I0
sba(imap
Cell
p1941
(dp1942
g4
I0
sba(imap
Cell
p1943
(dp1944
g4
I0
sba(imap
Cell
p1945
(dp1946
g4
I0
sba(imap
Cell
p1947
(dp1948
g4
I0
sba(imap
Cell
p1949
(dp1950
g4
I0
sba(imap
Cell
p1951
(dp1952
g4
I0
sba(imap
Cell
p1953
(dp1954
g4
I0
sba(imap
Cell
p1955
(dp1956
g4
I0
sba(imap
Cell
p1957
(dp1958
g4
I0
sba(imap
Cell
p1959
(dp1960
g4
I0
sba(imap
Cell
p1961
(dp1962
g4
I0
sba(imap
Cell
p1963
(dp1964
g4
I0
sba(imap
Cell
p1965
(dp1966
g4
I0
sba(imap
Cell
p1967
(dp1968
g4
I0
sba(imap
Cell
p1969
(dp1970
g4
I0
sba(imap
Cell
p1971
(dp1972
g4
I0
sba(imap
Cell
p1973
(dp1974
g4
I0
sba(imap
Cell
p1975
(dp1976
g4
I0
sba(imap
Cell
p1977
(dp1978
g4
I0
sba(imap
Cell
p1979
(dp1980
g4
I0
sba(imap
Cell
p1981
(dp1982
g4
I0
sba(imap
Cell
p1983
(dp1984
g4
I0
sba(imap
Cell
p1985
(dp1986
g4
I0
sba(imap
Cell
p1987
(dp1988
g4
I0
sba(imap
Cell
p1989
(dp1990
g4
I0
sba(imap
Cell
p1991
(dp1992
g4
I0
sba(imap
Cell
p1993
(dp1994
g4
I0
sba(imap
Cell
p1995
(dp1996
g4
I0
sba(imap
Cell
p1997
(dp1998
g4
I0
sba(imap
Cell
p1999
(dp2000
g4
I0
sba(imap
Cell
p2001
(dp2002
g4
I0
sba(imap
Cell
p2003
(dp2004
g4
I0
sba(imap
Cell
p2005
(dp2006
g4
I0
sba(imap
Cell
p2007
(dp2008
g4
I0
sba(imap
Cell
p2009
(dp2010
g4
I0
sba(imap
Cell
p2011
(dp2012
g4
I0
sba(imap
Cell
p2013
(dp2014
g4
I0
sba(imap
Cell
p2015
(dp2016
g4
I0
sba(imap
Cell
p2017
(dp2018
g4
I0
sba(imap
Cell
p2019
(dp2020
g4
I0
sba(imap
Cell
p2021
(dp2022
g4
I0
sba(imap
Cell
p2023
(dp2024
g4
I0
sba(imap
Cell
p2025
(dp2026
g4
I0
sba(imap
Cell
p2027
(dp2028
g4
I0
sba(imap
Cell
p2029
(dp2030
g4
I0
sba(imap
Cell
p2031
(dp2032
g4
I0
sba(imap
Cell
p2033
(dp2034
g4
I0
sba(imap
Cell
p2035
(dp2036
g4
I0
sba(imap
Cell
p2037
(dp2038
g4
I0
sba(imap
Cell
p2039
(dp2040
g4
I0
sba(imap
Cell
p2041
(dp2042
g4
I0
sba(imap
Cell
p2043
(dp2044
g4
I0
sba(imap
Cell
p2045
(dp2046
g4
I0
sba(imap
Cell
p2047
(dp2048
g4
I0
sba(imap
Cell
p2049
(dp2050
g4
I0
sba(imap
Cell
p2051
(dp2052
g4
I0
sba(imap
Cell
p2053
(dp2054
g4
I0
sba(imap
Cell
p2055
(dp2056
g4
I0
sba(imap
Cell
p2057
(dp2058
g4
I0
sba(imap
Cell
p2059
(dp2060
g4
I0
sba(imap
Cell
p2061
(dp2062
g4
I0
sba(imap
Cell
p2063
(dp2064
g4
I0
sba(imap
Cell
p2065
(dp2066
g4
I0
sba(imap
Cell
p2067
(dp2068
g4
I0
sba(imap
Cell
p2069
(dp2070
g4
I0
sba(imap
Cell
p2071
(dp2072
g4
I0
sba(imap
Cell
p2073
(dp2074
g4
I0
sba(imap
Cell
p2075
(dp2076
g4
I0
sba(imap
Cell
p2077
(dp2078
g4
I0
sba(imap
Cell
p2079
(dp2080
g4
I0
sba(imap
Cell
p2081
(dp2082
g4
I0
sba(imap
Cell
p2083
(dp2084
g4
I0
sba(imap
Cell
p2085
(dp2086
g4
I0
sba(imap
Cell
p2087
(dp2088
g4
I0
sba(imap
Cell
p2089
(dp2090
g4
I0
sba(imap
Cell
p2091
(dp2092
g4
I0
sba(imap
Cell
p2093
(dp2094
g4
I0
sba(imap
Cell
p2095
(dp2096
g4
I0
sba(imap
Cell
p2097
(dp2098
g4
I0
sba(imap
Cell
p2099
(dp2100
g4
I0
sba(imap
Cell
p2101
(dp2102
g4
I0
sba(imap
Cell
p2103
(dp2104
g4
I0
sba(imap
Cell
p2105
(dp2106
g4
I0
sba(imap
Cell
p2107
(dp2108
g4
I0
sba(imap
Cell
p2109
(dp2110
g4
I0
sba(imap
Cell
p2111
(dp2112
g4
I0
sba(imap
Cell
p2113
(dp2114
g4
I0
sba(imap
Cell
p2115
(dp2116
g4
I0
sba(imap
Cell
p2117
(dp2118
g4
I0
sba(imap
Cell
p2119
(dp2120
g4
I0
sba(imap
Cell
p2121
(dp2122
g4
I0
sba(imap
Cell
p2123
(dp2124
g4
I0
sba(imap
Cell
p2125
(dp2126
g4
I0
sba(imap
Cell
p2127
(dp2128
g4
I0
sba(imap
Cell
p2129
(dp2130
g4
I0
sba(imap
Cell
p2131
(dp2132
g4
I0
sba(imap
Cell
p2133
(dp2134
g4
I0
sba(imap
Cell
p2135
(dp2136
g4
I0
sba(imap
Cell
p2137
(dp2138
g4
I0
sba(imap
Cell
p2139
(dp2140
g4
I0
sba(imap
Cell
p2141
(dp2142
g4
I0
sba(imap
Cell
p2143
(dp2144
g4
I0
sba(imap
Cell
p2145
(dp2146
g4
I0
sba(imap
Cell
p2147
(dp2148
g4
I0
sba(imap
Cell
p2149
(dp2150
g4
I0
sba(imap
Cell
p2151
(dp2152
g4
I0
sba(imap
Cell
p2153
(dp2154
g4
I0
sba(imap
Cell
p2155
(dp2156
g4
I0
sba(imap
Cell
p2157
(dp2158
g4
I0
sba(imap
Cell
p2159
(dp2160
g4
I0
sba(imap
Cell
p2161
(dp2162
g4
I0
sba(imap
Cell
p2163
(dp2164
g4
I0
sba(imap
Cell
p2165
(dp2166
g4
I0
sba(imap
Cell
p2167
(dp2168
g4
I0
sba(imap
Cell
p2169
(dp2170
g4
I0
sba(imap
Cell
p2171
(dp2172
g4
I0
sba(imap
Cell
p2173
(dp2174
g4
I0
sba(imap
Cell
p2175
(dp2176
g4
I0
sba(imap
Cell
p2177
(dp2178
g4
I0
sba(imap
Cell
p2179
(dp2180
g4
I0
sba(imap
Cell
p2181
(dp2182
g4
I0
sba(imap
Cell
p2183
(dp2184
g4
I0
sba(imap
Cell
p2185
(dp2186
g4
I0
sba(imap
Cell
p2187
(dp2188
g4
I0
sba(imap
Cell
p2189
(dp2190
g4
I0
sba(imap
Cell
p2191
(dp2192
g4
I0
sba(imap
Cell
p2193
(dp2194
g4
I0
sba(imap
Cell
p2195
(dp2196
g4
I0
sba(imap
Cell
p2197
(dp2198
g4
I0
sba(imap
Cell
p2199
(dp2200
g4
I0
sba(imap
Cell
p2201
(dp2202
g4
I0
sba(imap
Cell
p2203
(dp2204
g4
I0
sba(imap
Cell
p2205
(dp2206
g4
I0
sba(imap
Cell
p2207
(dp2208
g4
I0
sba(imap
Cell
p2209
(dp2210
g4
I0
sba(imap
Cell
p2211
(dp2212
g4
I0
sba(imap
Cell
p2213
(dp2214
g4
I0
sba(imap
Cell
p2215
(dp2216
g4
I0
sba(imap
Cell
p2217
(dp2218
g4
I0
sba(imap
Cell
p2219
(dp2220
g4
I0
sba(imap
Cell
p2221
(dp2222
g4
I0
sba(imap
Cell
p2223
(dp2224
g4
I0
sba(imap
Cell
p2225
(dp2226
g4
I0
sba(imap
Cell
p2227
(dp2228
g4
I0
sba(imap
Cell
p2229
(dp2230
g4
I0
sba(imap
Cell
p2231
(dp2232
g4
I0
sba(imap
Cell
p2233
(dp2234
g4
I0
sba(imap
Cell
p2235
(dp2236
g4
I0
sba(imap
Cell
p2237
(dp2238
g4
I0
sba(imap
Cell
p2239
(dp2240
g4
I0
sba(imap
Cell
p2241
(dp2242
g4
I0
sba(imap
Cell
p2243
(dp2244
g4
I0
sba(imap
Cell
p2245
(dp2246
g4
I0
sba(imap
Cell
p2247
(dp2248
g4
I0
sba(imap
Cell
p2249
(dp2250
g4
I0
sba(imap
Cell
p2251
(dp2252
g4
I0
sba(imap
Cell
p2253
(dp2254
g4
I0
sbaa(lp2255
(imap
Cell
p2256
(dp2257
g4
I0
sba(imap
Cell
p2258
(dp2259
g4
I0
sba(imap
Cell
p2260
(dp2261
g4
I0
sba(imap
Cell
p2262
(dp2263
g4
I0
sba(imap
Cell
p2264
(dp2265
g4
I0
sba(imap
Cell
p2266
(dp2267
g4
I0
sba(imap
Cell
p2268
(dp2269
g4
I0
sba(imap
Cell
p2270
(dp2271
g4
I0
sba(imap
Cell
p2272
(dp2273
g4
I0
sba(imap
Cell
p2274
(dp2275
g4
I0
sba(imap
Cell
p2276
(dp2277
g4
I0
sba(imap
Cell
p2278
(dp2279
g4
I0
sba(imap
Cell
p2280
(dp2281
g4
I0
sba(imap
Cell
p2282
(dp2283
g4
I0
sba(imap
Cell
p2284
(dp2285
g4
I0
sba(imap
Cell
p2286
(dp2287
g4
I0
sba(imap
Cell
p2288
(dp2289
g4
I0
sba(imap
Cell
p2290
(dp2291
g4
I0
sba(imap
Cell
p2292
(dp2293
g4
I0
sba(imap
Cell
p2294
(dp2295
g4
I0
sba(imap
Cell
p2296
(dp2297
g4
I0
sba(imap
Cell
p2298
(dp2299
g4
I0
sba(imap
Cell
p2300
(dp2301
g4
I0
sba(imap
Cell
p2302
(dp2303
g4
I0
sba(imap
Cell
p2304
(dp2305
g4
I0
sba(imap
Cell
p2306
(dp2307
g4
I0
sba(imap
Cell
p2308
(dp2309
g4
I0
sba(imap
Cell
p2310
(dp2311
g4
I0
sba(imap
Cell
p2312
(dp2313
g4
I0
sba(imap
Cell
p2314
(dp2315
g4
I0
sba(imap
Cell
p2316
(dp2317
g4
I0
sba(imap
Cell
p2318
(dp2319
g4
I0
sba(imap
Cell
p2320
(dp2321
g4
I0
sba(imap
Cell
p2322
(dp2323
g4
I0
sba(imap
Cell
p2324
(dp2325
g4
I0
sba(imap
Cell
p2326
(dp2327
g4
I0
sba(imap
Cell
p2328
(dp2329
g4
I0
sba(imap
Cell
p2330
(dp2331
g4
I0
sba(imap
Cell
p2332
(dp2333
g4
I0
sba(imap
Cell
p2334
(dp2335
g4
I0
sba(imap
Cell
p2336
(dp2337
g4
I0
sba(imap
Cell
p2338
(dp2339
g4
I0
sba(imap
Cell
p2340
(dp2341
g4
I0
sba(imap
Cell
p2342
(dp2343
g4
I0
sba(imap
Cell
p2344
(dp2345
g4
I0
sba(imap
Cell
p2346
(dp2347
g4
I0
sba(imap
Cell
p2348
(dp2349
g4
I0
sba(imap
Cell
p2350
(dp2351
g4
I0
sba(imap
Cell
p2352
(dp2353
g4
I0
sba(imap
Cell
p2354
(dp2355
g4
I0
sba(imap
Cell
p2356
(dp2357
g4
I0
sba(imap
Cell
p2358
(dp2359
g4
I0
sba(imap
Cell
p2360
(dp2361
g4
I0
sba(imap
Cell
p2362
(dp2363
g4
I0
sba(imap
Cell
p2364
(dp2365
g4
I0
sba(imap
Cell
p2366
(dp2367
g4
I0
sba(imap
Cell
p2368
(dp2369
g4
I0
sba(imap
Cell
p2370
(dp2371
g4
I0
sba(imap
Cell
p2372
(dp2373
g4
I0
sba(imap
Cell
p2374
(dp2375
g4
I0
sba(imap
Cell
p2376
(dp2377
g4
I0
sba(imap
Cell
p2378
(dp2379
g4
I0
sba(imap
Cell
p2380
(dp2381
g4
I0
sba(imap
Cell
p2382
(dp2383
g4
I0
sba(imap
Cell
p2384
(dp2385
g4
I0
sba(imap
Cell
p2386
(dp2387
g4
I0
sba(imap
Cell
p2388
(dp2389
g4
I0
sba(imap
Cell
p2390
(dp2391
g4
I0
sba(imap
Cell
p2392
(dp2393
g4
I0
sba(imap
Cell
p2394
(dp2395
g4
I0
sba(imap
Cell
p2396
(dp2397
g4
I0
sba(imap
Cell
p2398
(dp2399
g4
I0
sba(imap
Cell
p2400
(dp2401
g4
I0
sba(imap
Cell
p2402
(dp2403
g4
I0
sba(imap
Cell
p2404
(dp2405
g4
I0
sba(imap
Cell
p2406
(dp2407
g4
I0
sba(imap
Cell
p2408
(dp2409
g4
I0
sba(imap
Cell
p2410
(dp2411
g4
I0
sba(imap
Cell
p2412
(dp2413
g4
I0
sba(imap
Cell
p2414
(dp2415
g4
I0
sba(imap
Cell
p2416
(dp2417
g4
I0
sba(imap
Cell
p2418
(dp2419
g4
I0
sba(imap
Cell
p2420
(dp2421
g4
I0
sba(imap
Cell
p2422
(dp2423
g4
I0
sba(imap
Cell
p2424
(dp2425
g4
I0
sba(imap
Cell
p2426
(dp2427
g4
I0
sba(imap
Cell
p2428
(dp2429
g4
I0
sba(imap
Cell
p2430
(dp2431
g4
I0
sba(imap
Cell
p2432
(dp2433
g4
I0
sba(imap
Cell
p2434
(dp2435
g4
I0
sba(imap
Cell
p2436
(dp2437
g4
I0
sba(imap
Cell
p2438
(dp2439
g4
I0
sba(imap
Cell
p2440
(dp2441
g4
I0
sba(imap
Cell
p2442
(dp2443
g4
I0
sba(imap
Cell
p2444
(dp2445
g4
I0
sba(imap
Cell
p2446
(dp2447
g4
I0
sba(imap
Cell
p2448
(dp2449
g4
I0
sba(imap
Cell
p2450
(dp2451
g4
I0
sba(imap
Cell
p2452
(dp2453
g4
I0
sba(imap
Cell
p2454
(dp2455
g4
I0
sba(imap
Cell
p2456
(dp2457
g4
I0
sba(imap
Cell
p2458
(dp2459
g4
I0
sba(imap
Cell
p2460
(dp2461
g4
I0
sba(imap
Cell
p2462
(dp2463
g4
I0
sba(imap
Cell
p2464
(dp2465
g4
I0
sba(imap
Cell
p2466
(dp2467
g4
I0
sba(imap
Cell
p2468
(dp2469
g4
I0
sba(imap
Cell
p2470
(dp2471
g4
I0
sba(imap
Cell
p2472
(dp2473
g4
I0
sba(imap
Cell
p2474
(dp2475
g4
I0
sba(imap
Cell
p2476
(dp2477
g4
I0
sba(imap
Cell
p2478
(dp2479
g4
I0
sba(imap
Cell
p2480
(dp2481
g4
I0
sba(imap
Cell
p2482
(dp2483
g4
I0
sba(imap
Cell
p2484
(dp2485
g4
I0
sba(imap
Cell
p2486
(dp2487
g4
I0
sba(imap
Cell
p2488
(dp2489
g4
I0
sba(imap
Cell
p2490
(dp2491
g4
I0
sba(imap
Cell
p2492
(dp2493
g4
I0
sba(imap
Cell
p2494
(dp2495
g4
I0
sba(imap
Cell
p2496
(dp2497
g4
I0
sba(imap
Cell
p2498
(dp2499
g4
I0
sba(imap
Cell
p2500
(dp2501
g4
I0
sba(imap
Cell
p2502
(dp2503
g4
I0
sba(imap
Cell
p2504
(dp2505
g4
I0
sba(imap
Cell
p2506
(dp2507
g4
I0
sba(imap
Cell
p2508
(dp2509
g4
I0
sba(imap
Cell
p2510
(dp2511
g4
I0
sba(imap
Cell
p2512
(dp2513
g4
I0
sba(imap
Cell
p2514
(dp2515
g4
I0
sba(imap
Cell
p2516
(dp2517
g4
I0
sba(imap
Cell
p2518
(dp2519
g4
I0
sba(imap
Cell
p2520
(dp2521
g4
I0
sba(imap
Cell
p2522
(dp2523
g4
I0
sba(imap
Cell
p2524
(dp2525
g4
I0
sba(imap
Cell
p2526
(dp2527
g4
I0
sba(imap
Cell
p2528
(dp2529
g4
I0
sba(imap
Cell
p2530
(dp2531
g4
I0
sba(imap
Cell
p2532
(dp2533
g4
I0
sba(imap
Cell
p2534
(dp2535
g4
I0
sba(imap
Cell
p2536
(dp2537
g4
I0
sba(imap
Cell
p2538
(dp2539
g4
I0
sba(imap
Cell
p2540
(dp2541
g4
I0
sba(imap
Cell
p2542
(dp2543
g4
I0
sba(imap
Cell
p2544
(dp2545
g4
I0
sba(imap
Cell
p2546
(dp2547
g4
I0
sba(imap
Cell
p2548
(dp2549
g4
I0
sba(imap
Cell
p2550
(dp2551
g4
I0
sba(imap
Cell
p2552
(dp2553
g4
I0
sba(imap
Cell
p2554
(dp2555
g4
I0
sba(imap
Cell
p2556
(dp2557
g4
I0
sba(imap
Cell
p2558
(dp2559
g4
I0
sba(imap
Cell
p2560
(dp2561
g4
I0
sba(imap
Cell
p2562
(dp2563
g4
I0
sba(imap
Cell
p2564
(dp2565
g4
I0
sba(imap
Cell
p2566
(dp2567
g4
I0
sba(imap
Cell
p2568
(dp2569
g4
I0
sba(imap
Cell
p2570
(dp2571
g4
I0
sba(imap
Cell
p2572
(dp2573
g4
I0
sba(imap
Cell
p2574
(dp2575
g4
I0
sba(imap
Cell
p2576
(dp2577
g4
I0
sba(imap
Cell
p2578
(dp2579
g4
I0
sba(imap
Cell
p2580
(dp2581
g4
I0
sba(imap
Cell
p2582
(dp2583
g4
I0
sba(imap
Cell
p2584
(dp2585
g4
I0
sba(imap
Cell
p2586
(dp2587
g4
I0
sba(imap
Cell
p2588
(dp2589
g4
I0
sba(imap
Cell
p2590
(dp2591
g4
I0
sba(imap
Cell
p2592
(dp2593
g4
I0
sba(imap
Cell
p2594
(dp2595
g4
I0
sba(imap
Cell
p2596
(dp2597
g4
I0
sba(imap
Cell
p2598
(dp2599
g4
I0
sba(imap
Cell
p2600
(dp2601
g4
I0
sba(imap
Cell
p2602
(dp2603
g4
I0
sba(imap
Cell
p2604
(dp2605
g4
I0
sba(imap
Cell
p2606
(dp2607
g4
I0
sba(imap
Cell
p2608
(dp2609
g4
I0
sba(imap
Cell
p2610
(dp2611
g4
I0
sba(imap
Cell
p2612
(dp2613
g4
I0
sba(imap
Cell
p2614
(dp2615
g4
I0
sba(imap
Cell
p2616
(dp2617
g4
I0
sba(imap
Cell
p2618
(dp2619
g4
I0
sba(imap
Cell
p2620
(dp2621
g4
I0
sba(imap
Cell
p2622
(dp2623
g4
I0
sba(imap
Cell
p2624
(dp2625
g4
I0
sba(imap
Cell
p2626
(dp2627
g4
I0
sba(imap
Cell
p2628
(dp2629
g4
I0
sba(imap
Cell
p2630
(dp2631
g4
I0
sba(imap
Cell
p2632
(dp2633
g4
I0
sba(imap
Cell
p2634
(dp2635
g4
I0
sba(imap
Cell
p2636
(dp2637
g4
I0
sba(imap
Cell
p2638
(dp2639
g4
I0
sba(imap
Cell
p2640
(dp2641
g4
I0
sba(imap
Cell
p2642
(dp2643
g4
I0
sba(imap
Cell
p2644
(dp2645
g4
I0
sba(imap
Cell
p2646
(dp2647
g4
I0
sba(imap
Cell
p2648
(dp2649
g4
I0
sba(imap
Cell
p2650
(dp2651
g4
I0
sba(imap
Cell
p2652
(dp2653
g4
I0
sba(imap
Cell
p2654
(dp2655
g4
I0
sba(imap
Cell
p2656
(dp2657
g4
I0
sba(imap
Cell
p2658
(dp2659
g4
I0
sba(imap
Cell
p2660
(dp2661
g4
I0
sba(imap
Cell
p2662
(dp2663
g4
I0
sba(imap
Cell
p2664
(dp2665
g4
I0
sba(imap
Cell
p2666
(dp2667
g4
I0
sba(imap
Cell
p2668
(dp2669
g4
I0
sba(imap
Cell
p2670
(dp2671
g4
I0
sba(imap
Cell
p2672
(dp2673
g4
I0
sba(imap
Cell
p2674
(dp2675
g4
I0
sba(imap
Cell
p2676
(dp2677
g4
I0
sba(imap
Cell
p2678
(dp2679
g4
I0
sba(imap
Cell
p2680
(dp2681
g4
I0
sba(imap
Cell
p2682
(dp2683
g4
I0
sba(imap
Cell
p2684
(dp2685
g4
I0
sba(imap
Cell
p2686
(dp2687
g4
I0
sba(imap
Cell
p2688
(dp2689
g4
I0
sba(imap
Cell
p2690
(dp2691
g4
I0
sba(imap
Cell
p2692
(dp2693
g4
I0
sba(imap
Cell
p2694
(dp2695
g4
I0
sba(imap
Cell
p2696
(dp2697
g4
I0
sba(imap
Cell
p2698
(dp2699
g4
I0
sba(imap
Cell
p2700
(dp2701
g4
I0
sba(imap
Cell
p2702
(dp2703
g4
I0
sba(imap
Cell
p2704
(dp2705
g4
I0
sba(imap
Cell
p2706
(dp2707
g4
I0
sba(imap
Cell
p2708
(dp2709
g4
I0
sba(imap
Cell
p2710
(dp2711
g4
I0
sba(imap
Cell
p2712
(dp2713
g4
I0
sba(imap
Cell
p2714
(dp2715
g4
I0
sba(imap
Cell
p2716
(dp2717
g4
I0
sba(imap
Cell
p2718
(dp2719
g4
I0
sba(imap
Cell
p2720
(dp2721
g4
I0
sba(imap
Cell
p2722
(dp2723
g4
I0
sba(imap
Cell
p2724
(dp2725
g4
I0
sba(imap
Cell
p2726
(dp2727
g4
I0
sba(imap
Cell
p2728
(dp2729
g4
I0
sba(imap
Cell
p2730
(dp2731
g4
I0
sba(imap
Cell
p2732
(dp2733
g4
I0
sba(imap
Cell
p2734
(dp2735
g4
I0
sba(imap
Cell
p2736
(dp2737
g4
I0
sba(imap
Cell
p2738
(dp2739
g4
I0
sba(imap
Cell
p2740
(dp2741
g4
I0
sba(imap
Cell
p2742
(dp2743
g4
I0
sba(imap
Cell
p2744
(dp2745
g4
I0
sba(imap
Cell
p2746
(dp2747
g4
I0
sba(imap
Cell
p2748
(dp2749
g4
I0
sba(imap
Cell
p2750
(dp2751
g4
I0
sba(imap
Cell
p2752
(dp2753
g4
I0
sba(imap
Cell
p2754
(dp2755
g4
I0
sba(imap
Cell
p2756
(dp2757
g4
I0
sba(imap
Cell
p2758
(dp2759
g4
I0
sba(imap
Cell
p2760
(dp2761
g4
I0
sba(imap
Cell
p2762
(dp2763
g4
I0
sba(imap
Cell
p2764
(dp2765
g4
I0
sba(imap
Cell
p2766
(dp2767
g4
I0
sba(imap
Cell
p2768
(dp2769
g4
I0
sba(imap
Cell
p2770
(dp2771
g4
I0
sba(imap
Cell
p2772
(dp2773
g4
I0
sba(imap
Cell
p2774
(dp2775
g4
I0
sba(imap
Cell
p2776
(dp2777
g4
I0
sba(imap
Cell
p2778
(dp2779
g4
I0
sba(imap
Cell
p2780
(dp2781
g4
I0
sba(imap
Cell
p2782
(dp2783
g4
I0
sba(imap
Cell
p2784
(dp2785
g4
I0
sba(imap
Cell
p2786
(dp2787
g4
I0
sba(imap
Cell
p2788
(dp2789
g4
I0
sba(imap
Cell
p2790
(dp2791
g4
I0
sba(imap
Cell
p2792
(dp2793
g4
I0
sba(imap
Cell
p2794
(dp2795
g4
I0
sba(imap
Cell
p2796
(dp2797
g4
I0
sba(imap
Cell
p2798
(dp2799
g4
I0
sba(imap
Cell
p2800
(dp2801
g4
I0
sba(imap
Cell
p2802
(dp2803
g4
I0
sba(imap
Cell
p2804
(dp2805
g4
I0
sba(imap
Cell
p2806
(dp2807
g4
I0
sba(imap
Cell
p2808
(dp2809
g4
I0
sba(imap
Cell
p2810
(dp2811
g4
I0
sba(imap
Cell
p2812
(dp2813
g4
I0
sba(imap
Cell
p2814
(dp2815
g4
I0
sba(imap
Cell
p2816
(dp2817
g4
I0
sba(imap
Cell
p2818
(dp2819
g4
I0
sba(imap
Cell
p2820
(dp2821
g4
I0
sba(imap
Cell
p2822
(dp2823
g4
I0
sba(imap
Cell
p2824
(dp2825
g4
I0
sba(imap
Cell
p2826
(dp2827
g4
I0
sba(imap
Cell
p2828
(dp2829
g4
I0
sba(imap
Cell
p2830
(dp2831
g4
I0
sba(imap
Cell
p2832
(dp2833
g4
I0
sba(imap
Cell
p2834
(dp2835
g4
I0
sba(imap
Cell
p2836
(dp2837
g4
I0
sba(imap
Cell
p2838
(dp2839
g4
I0
sba(imap
Cell
p2840
(dp2841
g4
I0
sba(imap
Cell
p2842
(dp2843
g4
I0
sba(imap
Cell
p2844
(dp2845
g4
I0
sba(imap
Cell
p2846
(dp2847
g4
I0
sba(imap
Cell
p2848
(dp2849
g4
I0
sba(imap
Cell
p2850
(dp2851
g4
I0
sba(imap
Cell
p2852
(dp2853
g4
I0
sba(imap
Cell
p2854
(dp2855
g4
I0
sba(imap
Cell
p2856
(dp2857
g4
I0
sba(imap
Cell
p2858
(dp2859
g4
I0
sba(imap
Cell
p2860
(dp2861
g4
I0
sba(imap
Cell
p2862
(dp2863
g4
I0
sba(imap
Cell
p2864
(dp2865
g4
I0
sba(imap
Cell
p2866
(dp2867
g4
I0
sba(imap
Cell
p2868
(dp2869
g4
I0
sba(imap
Cell
p2870
(dp2871
g4
I0
sba(imap
Cell
p2872
(dp2873
g4
I0
sba(imap
Cell
p2874
(dp2875
g4
I0
sba(imap
Cell
p2876
(dp2877
g4
I0
sba(imap
Cell
p2878
(dp2879
g4
I0
sba(imap
Cell
p2880
(dp2881
g4
I0
sba(imap
Cell
p2882
(dp2883
g4
I0
sba(imap
Cell
p2884
(dp2885
g4
I0
sba(imap
Cell
p2886
(dp2887
g4
I0
sba(imap
Cell
p2888
(dp2889
g4
I0
sba(imap
Cell
p2890
(dp2891
g4
I0
sba(imap
Cell
p2892
(dp2893
g4
I0
sba(imap
Cell
p2894
(dp2895
g4
I0
sba(imap
Cell
p2896
(dp2897
g4
I0
sba(imap
Cell
p2898
(dp2899
g4
I0
sba(imap
Cell
p2900
(dp2901
g4
I0
sba(imap
Cell
p2902
(dp2903
g4
I0
sba(imap
Cell
p2904
(dp2905
g4
I0
sba(imap
Cell
p2906
(dp2907
g4
I0
sba(imap
Cell
p2908
(dp2909
g4
I0
sba(imap
Cell
p2910
(dp2911
g4
I0
sba(imap
Cell
p2912
(dp2913
g4
I0
sba(imap
Cell
p2914
(dp2915
g4
I0
sba(imap
Cell
p2916
(dp2917
g4
I0
sba(imap
Cell
p2918
(dp2919
g4
I0
sba(imap
Cell
p2920
(dp2921
g4
I0
sba(imap
Cell
p2922
(dp2923
g4
I0
sba(imap
Cell
p2924
(dp2925
g4
I0
sba(imap
Cell
p2926
(dp2927
g4
I0
sba(imap
Cell
p2928
(dp2929
g4
I0
sba(imap
Cell
p2930
(dp2931
g4
I0
sba(imap
Cell
p2932
(dp2933
g4
I0
sba(imap
Cell
p2934
(dp2935
g4
I0
sba(imap
Cell
p2936
(dp2937
g4
I0
sba(imap
Cell
p2938
(dp2939
g4
I0
sba(imap
Cell
p2940
(dp2941
g4
I0
sba(imap
Cell
p2942
(dp2943
g4
I0
sba(imap
Cell
p2944
(dp2945
g4
I0
sba(imap
Cell
p2946
(dp2947
g4
I0
sba(imap
Cell
p2948
(dp2949
g4
I0
sba(imap
Cell
p2950
(dp2951
g4
I0
sba(imap
Cell
p2952
(dp2953
g4
I0
sba(imap
Cell
p2954
(dp2955
g4
I0
sba(imap
Cell
p2956
(dp2957
g4
I0
sba(imap
Cell
p2958
(dp2959
g4
I0
sba(imap
Cell
p2960
(dp2961
g4
I0
sba(imap
Cell
p2962
(dp2963
g4
I0
sba(imap
Cell
p2964
(dp2965
g4
I0
sba(imap
Cell
p2966
(dp2967
g4
I0
sba(imap
Cell
p2968
(dp2969
g4
I0
sba(imap
Cell
p2970
(dp2971
g4
I0
sba(imap
Cell
p2972
(dp2973
g4
I0
sba(imap
Cell
p2974
(dp2975
g4
I0
sba(imap
Cell
p2976
(dp2977
g4
I0
sba(imap
Cell
p2978
(dp2979
g4
I0
sba(imap
Cell
p2980
(dp2981
g4
I0
sba(imap
Cell
p2982
(dp2983
g4
I0
sba(imap
Cell
p2984
(dp2985
g4
I0
sba(imap
Cell
p2986
(dp2987
g4
I0
sba(imap
Cell
p2988
(dp2989
g4
I0
sba(imap
Cell
p2990
(dp2991
g4
I0
sba(imap
Cell
p2992
(dp2993
g4
I0
sba(imap
Cell
p2994
(dp2995
g4
I0
sba(imap
Cell
p2996
(dp2997
g4
I0
sba(imap
Cell
p2998
(dp2999
g4
I0
sba(imap
Cell
p3000
(dp3001
g4
I0
sba(imap
Cell
p3002
(dp3003
g4
I0
sba(imap
Cell
p3004
(dp3005
g4
I0
sbaa.